target datalayout = "e-m:e-p270:32:32-p271:32:32-p272:64:64-i64:64-i128:128-f80:128-n8:16:32:64-S128"
target triple = "x86_64-pc-linux-gnu"

%struct.Vec_Int_t_ = type { i32, i32, ptr }

@.str.28 = private unnamed_addr constant [25 x i8] c"Cofactoring %d signals.\0A\00", align 1
@.str.29 = private unnamed_addr constant [31 x i8] c"Too many signals to cofactor.\0A\00", align 1
@.str.30 = private unnamed_addr constant [25 x i8] c"Cofactored variable %d.\0A\00", align 1

; Function Attrs: inlinehint nounwind uwtable
define internal void @Vec_IntFree(ptr noundef %0) #3 {
  %2 = alloca ptr, align 8
  store ptr %0, ptr %2, align 8, !tbaa !54
  %3 = load ptr, ptr %2, align 8, !tbaa !54
  %4 = getelementptr inbounds nuw %struct.Vec_Int_t_, ptr %3, i32 0, i32 2
  %5 = load ptr, ptr %4, align 8, !tbaa !57
  %6 = icmp ne ptr %5, null
  br i1 %6, label %7, label %13

7:                                                ; preds = %1
  %8 = load ptr, ptr %2, align 8, !tbaa !54
  %9 = getelementptr inbounds nuw %struct.Vec_Int_t_, ptr %8, i32 0, i32 2
  %10 = load ptr, ptr %9, align 8, !tbaa !57
  call void @free(ptr noundef %10) #13
  %11 = load ptr, ptr %2, align 8, !tbaa !54
  %12 = getelementptr inbounds nuw %struct.Vec_Int_t_, ptr %11, i32 0, i32 2
  store ptr null, ptr %12, align 8, !tbaa !57
  br label %14

13:                                               ; preds = %1
  br label %14

14:                                               ; preds = %13, %7
  %15 = load ptr, ptr %2, align 8, !tbaa !54
  %16 = icmp ne ptr %15, null
  br i1 %16, label %17, label %19

17:                                               ; preds = %14
  %18 = load ptr, ptr %2, align 8, !tbaa !54
  call void @free(ptr noundef %18) #13
  store ptr null, ptr %2, align 8, !tbaa !54
  br label %20

19:                                               ; preds = %14
  br label %20

20:                                               ; preds = %19, %17
  ret void
}

; Function Attrs: inlinehint nounwind uwtable
define internal i32 @Vec_IntPop(ptr noundef %0) #3 {
  %2 = alloca ptr, align 8
  store ptr %0, ptr %2, align 8, !tbaa !54
  %3 = load ptr, ptr %2, align 8, !tbaa !54
  %4 = getelementptr inbounds nuw %struct.Vec_Int_t_, ptr %3, i32 0, i32 2
  %5 = load ptr, ptr %4, align 8, !tbaa !57
  %6 = load ptr, ptr %2, align 8, !tbaa !54
  %7 = getelementptr inbounds nuw %struct.Vec_Int_t_, ptr %6, i32 0, i32 1
  %8 = load i32, ptr %7, align 4, !tbaa !55
  %9 = add nsw i32 %8, -1
  store i32 %9, ptr %7, align 4, !tbaa !55
  %10 = sext i32 %9 to i64
  %11 = getelementptr inbounds i32, ptr %5, i64 %10
  %12 = load i32, ptr %11, align 4, !tbaa !8
  ret i32 %12
}

; Function Attrs: inlinehint nounwind uwtable
define internal void @Vec_IntSort(ptr noundef %0, i32 noundef %1) #3 {
  %3 = alloca ptr, align 8
  %4 = alloca i32, align 4
  store ptr %0, ptr %3, align 8, !tbaa !54
  store i32 %1, ptr %4, align 4, !tbaa !8
  %5 = load i32, ptr %4, align 4, !tbaa !8
  %6 = icmp ne i32 %5, 0
  br i1 %6, label %7, label %15

7:                                                ; preds = %2
  %8 = load ptr, ptr %3, align 8, !tbaa !54
  %9 = getelementptr inbounds nuw %struct.Vec_Int_t_, ptr %8, i32 0, i32 2
  %10 = load ptr, ptr %9, align 8, !tbaa !57
  %11 = load ptr, ptr %3, align 8, !tbaa !54
  %12 = getelementptr inbounds nuw %struct.Vec_Int_t_, ptr %11, i32 0, i32 1
  %13 = load i32, ptr %12, align 4, !tbaa !55
  %14 = sext i32 %13 to i64
  call void @qsort(ptr noundef %10, i64 noundef %14, i64 noundef 4, ptr noundef @Vec_IntSortCompare2)
  br label %23

15:                                               ; preds = %2
  %16 = load ptr, ptr %3, align 8, !tbaa !54
  %17 = getelementptr inbounds nuw %struct.Vec_Int_t_, ptr %16, i32 0, i32 2
  %18 = load ptr, ptr %17, align 8, !tbaa !57
  %19 = load ptr, ptr %3, align 8, !tbaa !54
  %20 = getelementptr inbounds nuw %struct.Vec_Int_t_, ptr %19, i32 0, i32 1
  %21 = load i32, ptr %20, align 4, !tbaa !55
  %22 = sext i32 %21 to i64
  call void @qsort(ptr noundef %18, i64 noundef %22, i64 noundef 4, ptr noundef @Vec_IntSortCompare1)
  br label %23

23:                                               ; preds = %15, %7
  ret void
}

; Function Attrs: inlinehint nounwind uwtable
define internal ptr @Vec_IntDup(ptr noundef %0) #3 {
  %2 = alloca ptr, align 8
  %3 = alloca ptr, align 8
  store ptr %0, ptr %2, align 8, !tbaa !54
  call void @llvm.lifetime.start.p0(i64 8, ptr %3) #13
  %4 = call noalias ptr @malloc(i64 noundef 16) #15
  store ptr %4, ptr %3, align 8, !tbaa !54
  %5 = load ptr, ptr %2, align 8, !tbaa !54
  %6 = getelementptr inbounds nuw %struct.Vec_Int_t_, ptr %5, i32 0, i32 1
  %7 = load i32, ptr %6, align 4, !tbaa !55
  %8 = load ptr, ptr %3, align 8, !tbaa !54
  %9 = getelementptr inbounds nuw %struct.Vec_Int_t_, ptr %8, i32 0, i32 1
  store i32 %7, ptr %9, align 4, !tbaa !55
  %10 = load ptr, ptr %2, align 8, !tbaa !54
  %11 = getelementptr inbounds nuw %struct.Vec_Int_t_, ptr %10, i32 0, i32 1
  %12 = load i32, ptr %11, align 4, !tbaa !55
  %13 = load ptr, ptr %3, align 8, !tbaa !54
  %14 = getelementptr inbounds nuw %struct.Vec_Int_t_, ptr %13, i32 0, i32 0
  store i32 %12, ptr %14, align 8, !tbaa !56
  %15 = load ptr, ptr %3, align 8, !tbaa !54
  %16 = getelementptr inbounds nuw %struct.Vec_Int_t_, ptr %15, i32 0, i32 0
  %17 = load i32, ptr %16, align 8, !tbaa !56
  %18 = icmp ne i32 %17, 0
  br i1 %18, label %19, label %26

19:                                               ; preds = %1
  %20 = load ptr, ptr %3, align 8, !tbaa !54
  %21 = getelementptr inbounds nuw %struct.Vec_Int_t_, ptr %20, i32 0, i32 0
  %22 = load i32, ptr %21, align 8, !tbaa !56
  %23 = sext i32 %22 to i64
  %24 = mul i64 4, %23
  %25 = call noalias ptr @malloc(i64 noundef %24) #15
  br label %27

26:                                               ; preds = %1
  br label %27

27:                                               ; preds = %26, %19
  %28 = phi ptr [ %25, %19 ], [ null, %26 ]
  %29 = load ptr, ptr %3, align 8, !tbaa !54
  %30 = getelementptr inbounds nuw %struct.Vec_Int_t_, ptr %29, i32 0, i32 2
  store ptr %28, ptr %30, align 8, !tbaa !57
  %31 = load ptr, ptr %3, align 8, !tbaa !54
  %32 = getelementptr inbounds nuw %struct.Vec_Int_t_, ptr %31, i32 0, i32 2
  %33 = load ptr, ptr %32, align 8, !tbaa !57
  %34 = load ptr, ptr %2, align 8, !tbaa !54
  %35 = getelementptr inbounds nuw %struct.Vec_Int_t_, ptr %34, i32 0, i32 2
  %36 = load ptr, ptr %35, align 8, !tbaa !57
  %37 = load ptr, ptr %2, align 8, !tbaa !54
  %38 = getelementptr inbounds nuw %struct.Vec_Int_t_, ptr %37, i32 0, i32 1
  %39 = load i32, ptr %38, align 4, !tbaa !55
  %40 = sext i32 %39 to i64
  %41 = mul i64 4, %40
  call void @llvm.memcpy.p0.p0.i64(ptr align 4 %33, ptr align 4 %36, i64 %41, i1 false)
  %42 = load ptr, ptr %3, align 8, !tbaa !54
  call void @llvm.lifetime.end.p0(i64 8, ptr %3) #13
  ret ptr %42
}

; Function Attrs: inlinehint nounwind uwtable
define internal i32 @Vec_IntSize(ptr noundef %0) #3 {
  %2 = alloca ptr, align 8
  store ptr %0, ptr %2, align 8, !tbaa !54
  %3 = load ptr, ptr %2, align 8, !tbaa !54
  %4 = getelementptr inbounds nuw %struct.Vec_Int_t_, ptr %3, i32 0, i32 1
  %5 = load i32, ptr %4, align 4, !tbaa !55
  ret i32 %5
}

; Function Attrs: nounwind uwtable
define ptr @Gia_ManDupCofAllInt(ptr noundef %0, ptr noundef %1, i32 noundef %2) #0 {
  %4 = alloca ptr, align 8
  %5 = alloca ptr, align 8
  %6 = alloca ptr, align 8
  %7 = alloca i32, align 4
  %8 = alloca ptr, align 8
  %9 = alloca ptr, align 8
  %10 = alloca ptr, align 8
  %11 = alloca ptr, align 8
  %12 = alloca ptr, align 8
  %13 = alloca i32, align 4
  %14 = alloca i32, align 4
  store ptr %0, ptr %5, align 8, !tbaa !3
  store ptr %1, ptr %6, align 8, !tbaa !54
  store i32 %2, ptr %7, align 4, !tbaa !8
  call void @llvm.lifetime.start.p0(i64 8, ptr %8) #13
  call void @llvm.lifetime.start.p0(i64 8, ptr %9) #13
  call void @llvm.lifetime.start.p0(i64 8, ptr %10) #13
  call void @llvm.lifetime.start.p0(i64 8, ptr %11) #13
  call void @llvm.lifetime.start.p0(i64 8, ptr %12) #13
  call void @llvm.lifetime.start.p0(i64 4, ptr %13) #13
  %15 = load i32, ptr %7, align 4, !tbaa !8
  %16 = icmp ne i32 %15, 0
  br i1 %16, label %17, label %22

17:                                               ; preds = %3
  %18 = load ptr, ptr %6, align 8, !tbaa !54
  %19 = call i32 @Vec_IntSize(ptr noundef %18)
  %20 = call i32 (ptr, ...) @printf(ptr noundef @.str.28, i32 noundef %19)
  %21 = load ptr, ptr %5, align 8, !tbaa !3
  call void @Gia_ManPrintStats(ptr noundef %21, ptr noundef null)
  br label %22

22:                                               ; preds = %17, %3
  %23 = load ptr, ptr %6, align 8, !tbaa !54
  %24 = call i32 @Vec_IntSize(ptr noundef %23)
  %25 = icmp sgt i32 %24, 200
  br i1 %25, label %26, label %28

26:                                               ; preds = %22
  %27 = call i32 (ptr, ...) @printf(ptr noundef @.str.29)
  store ptr null, ptr %4, align 8
  store i32 1, ptr %14, align 4
  br label %69

28:                                               ; preds = %22
  %29 = load ptr, ptr %5, align 8, !tbaa !3
  %30 = call ptr @Gia_ManDup(ptr noundef %29)
  store ptr %30, ptr %10, align 8, !tbaa !3
  %31 = load ptr, ptr %6, align 8, !tbaa !54
  %32 = call ptr @Vec_IntDup(ptr noundef %31)
  store ptr %32, ptr %8, align 8, !tbaa !54
  br label %33

33:                                               ; preds = %65, %28
  %34 = load ptr, ptr %8, align 8, !tbaa !54
  %35 = call i32 @Vec_IntSize(ptr noundef %34)
  %36 = icmp sgt i32 %35, 0
  br i1 %36, label %37, label %66

37:                                               ; preds = %33
  %38 = load ptr, ptr %8, align 8, !tbaa !54
  call void @Vec_IntSort(ptr noundef %38, i32 noundef 0)
  %39 = load ptr, ptr %8, align 8, !tbaa !54
  %40 = call i32 @Vec_IntPop(ptr noundef %39)
  store i32 %40, ptr %13, align 4, !tbaa !8
  %41 = load ptr, ptr %10, align 8, !tbaa !3
  %42 = load i32, ptr %13, align 4, !tbaa !8
  %43 = call ptr @Gia_ManDupCofInt(ptr noundef %41, i32 noundef %42)
  store ptr %43, ptr %11, align 8, !tbaa !3
  %44 = load ptr, ptr %11, align 8, !tbaa !3
  %45 = call ptr @Gia_ManCleanup(ptr noundef %44)
  store ptr %45, ptr %12, align 8, !tbaa !3
  %46 = load ptr, ptr %10, align 8, !tbaa !3
  %47 = load ptr, ptr %11, align 8, !tbaa !3
  %48 = load ptr, ptr %12, align 8, !tbaa !3
  %49 = load ptr, ptr %8, align 8, !tbaa !54
  store ptr %49, ptr %9, align 8, !tbaa !54
  %50 = call ptr @Gia_ManTransfer(ptr noundef %46, ptr noundef %47, ptr noundef %48, ptr noundef %49)
  store ptr %50, ptr %8, align 8, !tbaa !54
  %51 = load ptr, ptr %9, align 8, !tbaa !54
  call void @Vec_IntFree(ptr noundef %51)
  %52 = load ptr, ptr %10, align 8, !tbaa !3
  call void @Gia_ManStop(ptr noundef %52)
  %53 = load ptr, ptr %11, align 8, !tbaa !3
  call void @Gia_ManStop(ptr noundef %53)
  %54 = load ptr, ptr %12, align 8, !tbaa !3
  store ptr %54, ptr %10, align 8, !tbaa !3
  %55 = load i32, ptr %7, align 4, !tbaa !8
  %56 = icmp ne i32 %55, 0
  br i1 %56, label %57, label %60

57:                                               ; preds = %37
  %58 = load i32, ptr %13, align 4, !tbaa !8
  %59 = call i32 (ptr, ...) @printf(ptr noundef @.str.30, i32 noundef %58)
  br label %60

60:                                               ; preds = %57, %37
  %61 = load i32, ptr %7, align 4, !tbaa !8
  %62 = icmp ne i32 %61, 0
  br i1 %62, label %63, label %65

63:                                               ; preds = %60
  %64 = load ptr, ptr %10, align 8, !tbaa !3
  call void @Gia_ManPrintStats(ptr noundef %64, ptr noundef null)
  br label %65

65:                                               ; preds = %63, %60
  br label %33, !llvm.loop !107

66:                                               ; preds = %33
  %67 = load ptr, ptr %8, align 8, !tbaa !54
  call void @Vec_IntFree(ptr noundef %67)
  %68 = load ptr, ptr %10, align 8, !tbaa !3
  store ptr %68, ptr %4, align 8
  store i32 1, ptr %14, align 4
  br label %69

69:                                               ; preds = %66, %26
  call void @llvm.lifetime.end.p0(i64 4, ptr %13) #13
  call void @llvm.lifetime.end.p0(i64 8, ptr %12) #13
  call void @llvm.lifetime.end.p0(i64 8, ptr %11) #13
  call void @llvm.lifetime.end.p0(i64 8, ptr %10) #13
  call void @llvm.lifetime.end.p0(i64 8, ptr %9) #13
  call void @llvm.lifetime.end.p0(i64 8, ptr %8) #13
  %70 = load ptr, ptr %4, align 8
  ret ptr %70
}