; Function Attrs: nounwind uwtable
define ptr @Gia_ManDupCofAllInt(ptr noundef %0, ptr noundef readonly captures(none) %1, i32 noundef %2) local_unnamed_addr #0 {
  %.not = icmp eq i32 %2, 0
  br i1 %.not, label %7, label %4

4:                                                ; preds = %3
  %5 = getelementptr i8, ptr %1, i64 4
  %.val28 = load i32, ptr %5, align 4, !tbaa !30
  %6 = tail call i32 (ptr, ...) @printf(ptr noundef nonnull dereferenceable(1) @.str.28, i32 noundef %.val28)
  tail call void @Gia_ManPrintStats(ptr noundef %0, ptr noundef null) #27
  br label %7

7:                                                ; preds = %4, %3
  %8 = getelementptr i8, ptr %1, i64 4
  %.val = load i32, ptr %8, align 4, !tbaa !30
  %9 = icmp sgt i32 %.val, 200
  br i1 %9, label %10, label %11

10:                                               ; preds = %7
  %puts = tail call i32 @puts(ptr nonnull dereferenceable(1) @str.2)
  br label %60

11:                                               ; preds = %7
  %12 = tail call ptr @Gia_ManDup(ptr noundef %0) #27
  %13 = tail call noalias dereferenceable_or_null(16) ptr @malloc(i64 noundef 16) #26
  %14 = load i32, ptr %8, align 4, !tbaa !30
  %15 = getelementptr i8, ptr %13, i64 4
  store i32 %14, ptr %15, align 4, !tbaa !30
  store i32 %14, ptr %13, align 8, !tbaa !31
  %.not.i = icmp eq i32 %14, 0
  br i1 %.not.i, label %Vec_IntDup.exit.thread, label %Vec_IntDup.exit

Vec_IntDup.exit.thread:                           ; preds = %11
  %16 = getelementptr inbounds nuw i8, ptr %13, i64 8
  store ptr null, ptr %16, align 8, !tbaa !32
  br label %._crit_edge

Vec_IntDup.exit:                                  ; preds = %11
  %17 = sext i32 %14 to i64
  %18 = shl nsw i64 %17, 2
  %19 = tail call noalias ptr @malloc(i64 noundef %18) #26
  %20 = getelementptr inbounds nuw i8, ptr %13, i64 8
  store ptr %19, ptr %20, align 8, !tbaa !32
  %21 = getelementptr inbounds nuw i8, ptr %1, i64 8
  %22 = load ptr, ptr %21, align 8, !tbaa !32
  tail call void @llvm.memcpy.p0.p0.i64(ptr align 4 %19, ptr align 4 %22, i64 %18, i1 false)
  %23 = icmp sgt i32 %14, 0
  br i1 %23, label %.lr.ph, label %._crit_edge

.lr.ph:                                           ; preds = %Vec_IntDup.exit
  br i1 %.not, label %.lr.ph.split.us, label %.lr.ph.split

.lr.ph.split.us:                                  ; preds = %.lr.ph, %Vec_IntFree.exit.us
  %.026.val37.us = phi i32 [ %.026.val.us, %Vec_IntFree.exit.us ], [ %14, %.lr.ph ]
  %24 = phi ptr [ %38, %Vec_IntFree.exit.us ], [ %15, %.lr.ph ]
  %.02636.us = phi ptr [ %35, %Vec_IntFree.exit.us ], [ %13, %.lr.ph ]
  %.02735.us = phi ptr [ %34, %Vec_IntFree.exit.us ], [ %12, %.lr.ph ]
  %25 = getelementptr i8, ptr %.02636.us, i64 8
  %.026.val30.us = load ptr, ptr %25, align 8, !tbaa !32
  %26 = zext nneg i32 %.026.val37.us to i64
  tail call void @qsort(ptr noundef %.026.val30.us, i64 noundef %26, i64 noundef 4, ptr noundef nonnull @Vec_IntSortCompare1) #27
  %27 = load ptr, ptr %25, align 8, !tbaa !32
  %28 = load i32, ptr %24, align 4, !tbaa !30
  %29 = add nsw i32 %28, -1
  store i32 %29, ptr %24, align 4, !tbaa !30
  %30 = sext i32 %29 to i64
  %31 = getelementptr inbounds i32, ptr %27, i64 %30
  %32 = load i32, ptr %31, align 4, !tbaa !43
  %33 = tail call ptr @Gia_ManDupCofInt(ptr noundef %.02735.us, i32 noundef %32)
  %34 = tail call ptr @Gia_ManCleanup(ptr noundef %33) #27
  %35 = tail call ptr @Gia_ManTransfer(ptr noundef %.02735.us, ptr noundef %33, ptr poison, ptr noundef nonnull %.02636.us)
  %36 = load ptr, ptr %25, align 8, !tbaa !32
  %.not.i31.us = icmp eq ptr %36, null
  br i1 %.not.i31.us, label %Vec_IntFree.exit.us, label %37

37:                                               ; preds = %.lr.ph.split.us
  tail call void @free(ptr noundef nonnull %36) #27
  br label %Vec_IntFree.exit.us

Vec_IntFree.exit.us:                              ; preds = %37, %.lr.ph.split.us
  tail call void @free(ptr noundef nonnull %.02636.us) #27
  tail call void @Gia_ManStop(ptr noundef %.02735.us) #27
  tail call void @Gia_ManStop(ptr noundef %33) #27
  %38 = getelementptr i8, ptr %35, i64 4
  %.026.val.us = load i32, ptr %38, align 4, !tbaa !30
  %39 = icmp sgt i32 %.026.val.us, 0
  br i1 %39, label %.lr.ph.split.us, label %._crit_edge, !llvm.loop !103

.lr.ph.split:                                     ; preds = %.lr.ph, %Vec_IntFree.exit
  %.026.val37 = phi i32 [ %.026.val, %Vec_IntFree.exit ], [ %14, %.lr.ph ]
  %40 = phi ptr [ %55, %Vec_IntFree.exit ], [ %15, %.lr.ph ]
  %.02636 = phi ptr [ %51, %Vec_IntFree.exit ], [ %13, %.lr.ph ]
  %.02735 = phi ptr [ %50, %Vec_IntFree.exit ], [ %12, %.lr.ph ]
  %41 = getelementptr i8, ptr %.02636, i64 8
  %.026.val30 = load ptr, ptr %41, align 8, !tbaa !32
  %42 = zext nneg i32 %.026.val37 to i64
  tail call void @qsort(ptr noundef %.026.val30, i64 noundef %42, i64 noundef 4, ptr noundef nonnull @Vec_IntSortCompare1) #27
  %43 = load ptr, ptr %41, align 8, !tbaa !32
  %44 = load i32, ptr %40, align 4, !tbaa !30
  %45 = add nsw i32 %44, -1
  store i32 %45, ptr %40, align 4, !tbaa !30
  %46 = sext i32 %45 to i64
  %47 = getelementptr inbounds i32, ptr %43, i64 %46
  %48 = load i32, ptr %47, align 4, !tbaa !43
  %49 = tail call ptr @Gia_ManDupCofInt(ptr noundef %.02735, i32 noundef %48)
  %50 = tail call ptr @Gia_ManCleanup(ptr noundef %49) #27
  %51 = tail call ptr @Gia_ManTransfer(ptr noundef %.02735, ptr noundef %49, ptr poison, ptr noundef nonnull %.02636)
  %52 = load ptr, ptr %41, align 8, !tbaa !32
  %.not.i31 = icmp eq ptr %52, null
  br i1 %.not.i31, label %Vec_IntFree.exit, label %53

53:                                               ; preds = %.lr.ph.split
  tail call void @free(ptr noundef nonnull %52) #27
  br label %Vec_IntFree.exit

Vec_IntFree.exit:                                 ; preds = %.lr.ph.split, %53
  tail call void @free(ptr noundef nonnull %.02636) #27
  tail call void @Gia_ManStop(ptr noundef %.02735) #27
  tail call void @Gia_ManStop(ptr noundef %49) #27
  %54 = tail call i32 (ptr, ...) @printf(ptr noundef nonnull dereferenceable(1) @.str.30, i32 noundef %48)
  tail call void @Gia_ManPrintStats(ptr noundef %50, ptr noundef null) #27
  %55 = getelementptr i8, ptr %51, i64 4
  %.026.val = load i32, ptr %55, align 4, !tbaa !30
  %56 = icmp sgt i32 %.026.val, 0
  br i1 %56, label %.lr.ph.split, label %._crit_edge, !llvm.loop !103

._crit_edge:                                      ; preds = %Vec_IntFree.exit, %Vec_IntFree.exit.us, %Vec_IntDup.exit.thread, %Vec_IntDup.exit
  %.027.lcssa = phi ptr [ %12, %Vec_IntDup.exit ], [ %12, %Vec_IntDup.exit.thread ], [ %34, %Vec_IntFree.exit.us ], [ %50, %Vec_IntFree.exit ]
  %.026.lcssa = phi ptr [ %13, %Vec_IntDup.exit ], [ %13, %Vec_IntDup.exit.thread ], [ %35, %Vec_IntFree.exit.us ], [ %51, %Vec_IntFree.exit ]
  %57 = getelementptr inbounds nuw i8, ptr %.026.lcssa, i64 8
  %58 = load ptr, ptr %57, align 8, !tbaa !32
  %.not.i32 = icmp eq ptr %58, null
  br i1 %.not.i32, label %Vec_IntFree.exit33, label %59

59:                                               ; preds = %._crit_edge
  tail call void @free(ptr noundef nonnull %58) #27
  br label %Vec_IntFree.exit33

Vec_IntFree.exit33:                               ; preds = %._crit_edge, %59
  tail call void @free(ptr noundef nonnull %.026.lcssa) #27
  br label %60

60:                                               ; preds = %Vec_IntFree.exit33, %10
  %.0 = phi ptr [ null, %10 ], [ %.027.lcssa, %Vec_IntFree.exit33 ]
  ret ptr %.0
}